; Function Attrs: nounwind uwtable
define internal fastcc i32 @zddGroupMove(ptr noundef %0, i32 noundef %1, i32 noundef %2, ptr noundef nonnull captures(none) %3) unnamed_addr #0 {
  %5 = getelementptr inbounds nuw i8, ptr %0, i64 160
  %6 = load ptr, ptr %5, align 8, !tbaa !31
  %7 = sext i32 %1 to i64
  %8 = getelementptr inbounds %struct.DdSubtable, ptr %6, i64 %7, i32 6
  %9 = load i32, ptr %8, align 4, !tbaa !32
  br label %10

10:                                               ; preds = %10, %4
  %.089 = phi i32 [ %2, %4 ], [ %13, %10 ]
  %11 = sext i32 %.089 to i64
  %12 = getelementptr inbounds %struct.DdSubtable, ptr %6, i64 %11, i32 6
  %13 = load i32, ptr %12, align 4, !tbaa !32
  %14 = icmp ult i32 %.089, %13
  br i1 %14, label %10, label %15, !llvm.loop !82

15:                                               ; preds = %10
  %16 = sub i32 %1, %9
  %17 = sub nsw i32 %.089, %2
  %.not113 = icmp slt i32 %17, 0
  br i1 %.not113, label %._crit_edge124, label %.preheader102.lr.ph

.preheader102.lr.ph:                              ; preds = %15
  %.not100108 = icmp slt i32 %16, 0
  br i1 %.not100108, label %.preheader102.us.preheader, label %.preheader102.preheader

.preheader102.preheader:                          ; preds = %.preheader102.lr.ph
  %18 = add i32 %1, 2
  %19 = sub i32 %18, %9
  %reass.sub = sub i32 %.089, %2
  %20 = add i32 %reass.sub, 1
  br label %.preheader102

.preheader102.us.preheader:                       ; preds = %.preheader102.lr.ph
  %reass.sub146 = sub i32 %.089, %2
  %21 = add i32 %reass.sub146, 1
  br label %.preheader102.us

.preheader102.us:                                 ; preds = %.preheader102.us.preheader, %.preheader102.us
  %.093114.us = phi i32 [ %24, %.preheader102.us ], [ 1, %.preheader102.us.preheader ]
  %22 = add nsw i32 %.093114.us, %2
  %23 = tail call i32 @cuddZddNextLow(ptr noundef %0, i32 noundef %22) #9
  %24 = add nuw i32 %.093114.us, 1
  %exitcond143 = icmp eq i32 %.093114.us, %21
  br i1 %exitcond143, label %.preheader, label %.preheader102.us, !llvm.loop !83

.preheader102:                                    ; preds = %.preheader102.preheader, %._crit_edge
  %.087116 = phi i32 [ %32, %._crit_edge ], [ %1, %.preheader102.preheader ]
  %.090115 = phi i32 [ %31, %._crit_edge ], [ %2, %.preheader102.preheader ]
  %.093114 = phi i32 [ %33, %._crit_edge ], [ 1, %.preheader102.preheader ]
  br label %25

.preheader:                                       ; preds = %._crit_edge, %.preheader102.us
  %.084.lcssa = phi i32 [ -1, %.preheader102.us ], [ %.188111, %._crit_edge ]
  %.0.lcssa = phi i32 [ -1, %.preheader102.us ], [ %.191110, %._crit_edge ]
  %.not = icmp eq i32 %.089, %2
  br i1 %.not, label %._crit_edge124, label %.lr.ph

25:                                               ; preds = %.preheader102, %28
  %.188111 = phi i32 [ %.087116, %.preheader102 ], [ %29, %28 ]
  %.191110 = phi i32 [ %.090115, %.preheader102 ], [ %.188111, %28 ]
  %.096109 = phi i32 [ 1, %.preheader102 ], [ %30, %28 ]
  %26 = tail call i32 @cuddZddSwapInPlace(ptr noundef %0, i32 noundef %.188111, i32 noundef %.191110) #9
  %27 = icmp eq i32 %26, 0
  br i1 %27, label %.loopexit103, label %28

28:                                               ; preds = %25
  %29 = tail call i32 @cuddZddNextLow(ptr noundef %0, i32 noundef %.188111) #9
  %30 = add nuw i32 %.096109, 1
  %exitcond = icmp eq i32 %30, %19
  br i1 %exitcond, label %._crit_edge, label %25, !llvm.loop !84

._crit_edge:                                      ; preds = %28
  %31 = add nsw i32 %.093114, %2
  %32 = tail call i32 @cuddZddNextLow(ptr noundef %0, i32 noundef %31) #9
  %33 = add nuw i32 %.093114, 1
  %exitcond141 = icmp eq i32 %.093114, %20
  br i1 %exitcond141, label %.preheader, label %.preheader102, !llvm.loop !83

.lr.ph:                                           ; preds = %.preheader, %.lr.ph
  %.292123 = phi i32 [ %38, %.lr.ph ], [ %9, %.preheader ]
  %.194122 = phi i32 [ %39, %.lr.ph ], [ 0, %.preheader ]
  %34 = tail call i32 @cuddZddNextHigh(ptr noundef %0, i32 noundef %.292123) #9
  %35 = load ptr, ptr %5, align 8, !tbaa !31
  %36 = sext i32 %.292123 to i64
  %37 = getelementptr inbounds %struct.DdSubtable, ptr %35, i64 %36, i32 6
  store i32 %34, ptr %37, align 4, !tbaa !32
  %38 = tail call i32 @cuddZddNextHigh(ptr noundef %0, i32 noundef %.292123) #9
  %39 = add nuw nsw i32 %.194122, 1
  %exitcond144.not = icmp eq i32 %39, %17
  br i1 %exitcond144.not, label %._crit_edge124, label %.lr.ph, !llvm.loop !85

._crit_edge124:                                   ; preds = %.lr.ph, %15, %.preheader
  %.0.lcssa150 = phi i32 [ %.0.lcssa, %.preheader ], [ -1, %15 ], [ %.0.lcssa, %.lr.ph ]
  %.084.lcssa149 = phi i32 [ %.084.lcssa, %.preheader ], [ -1, %15 ], [ %.084.lcssa, %.lr.ph ]
  %.292.lcssa = phi i32 [ %9, %.preheader ], [ %9, %15 ], [ %38, %.lr.ph ]
  %40 = load ptr, ptr %5, align 8, !tbaa !31
  %41 = sext i32 %.292.lcssa to i64
  %42 = getelementptr inbounds %struct.DdSubtable, ptr %40, i64 %41, i32 6
  store i32 %9, ptr %42, align 4, !tbaa !32
  %43 = tail call i32 @cuddZddNextHigh(ptr noundef %0, i32 noundef %.292.lcssa) #9
  %44 = icmp sgt i32 %16, 0
  br i1 %44, label %.lr.ph129, label %._crit_edge130

.lr.ph129:                                        ; preds = %._crit_edge124, %.lr.ph129
  %.2127 = phi i32 [ %49, %.lr.ph129 ], [ %43, %._crit_edge124 ]
  %.295126 = phi i32 [ %50, %.lr.ph129 ], [ 0, %._crit_edge124 ]
  %45 = tail call i32 @cuddZddNextHigh(ptr noundef nonnull %0, i32 noundef %.2127) #9
  %46 = load ptr, ptr %5, align 8, !tbaa !31
  %47 = sext i32 %.2127 to i64
  %48 = getelementptr inbounds %struct.DdSubtable, ptr %46, i64 %47, i32 6
  store i32 %45, ptr %48, align 4, !tbaa !32
  %49 = tail call i32 @cuddZddNextHigh(ptr noundef nonnull %0, i32 noundef %.2127) #9
  %50 = add nuw nsw i32 %.295126, 1
  %exitcond145.not = icmp eq i32 %50, %16
  br i1 %exitcond145.not, label %._crit_edge130, label %.lr.ph129, !llvm.loop !86

._crit_edge130:                                   ; preds = %.lr.ph129, %._crit_edge124
  %.2.lcssa = phi i32 [ %43, %._crit_edge124 ], [ %49, %.lr.ph129 ]
  %51 = load ptr, ptr %5, align 8, !tbaa !31
  %52 = sext i32 %.2.lcssa to i64
  %53 = getelementptr inbounds %struct.DdSubtable, ptr %51, i64 %52, i32 6
  store i32 %43, ptr %53, align 4, !tbaa !32
  %54 = tail call ptr @cuddDynamicAllocNode(ptr noundef nonnull %0) #9
  %55 = icmp eq ptr %54, null
  br i1 %55, label %.loopexit103, label %56

56:                                               ; preds = %._crit_edge130
  store i32 %.084.lcssa149, ptr %54, align 8, !tbaa !54
  %57 = getelementptr inbounds nuw i8, ptr %54, i64 4
  store i32 %.0.lcssa150, ptr %57, align 4, !tbaa !51
  %58 = getelementptr inbounds nuw i8, ptr %54, i64 8
  store i32 0, ptr %58, align 8, !tbaa !68
  %59 = getelementptr inbounds nuw i8, ptr %0, i64 232
  %60 = load i32, ptr %59, align 8, !tbaa !41
  %61 = getelementptr inbounds nuw i8, ptr %54, i64 12
  store i32 %60, ptr %61, align 4, !tbaa !69
  %62 = load ptr, ptr %3, align 8, !tbaa !49
  %63 = getelementptr inbounds nuw i8, ptr %54, i64 16
  store ptr %62, ptr %63, align 8, !tbaa !57
  store ptr %54, ptr %3, align 8, !tbaa !49
  br label %.loopexit

.loopexit103:                                     ; preds = %25, %._crit_edge130
  %.pr = load ptr, ptr %3, align 8, !tbaa !49
  %.not101132 = icmp eq ptr %.pr, null
  br i1 %.not101132, label %.loopexit, label %.lr.ph134

.lr.ph134:                                        ; preds = %.loopexit103
  %64 = getelementptr inbounds nuw i8, ptr %0, i64 400
  %.promoted = load ptr, ptr %64, align 8, !tbaa !56
  br label %65

65:                                               ; preds = %.lr.ph134, %65
  %66 = phi ptr [ %.promoted, %.lr.ph134 ], [ %67, %65 ]
  %67 = phi ptr [ %.pr, %.lr.ph134 ], [ %69, %65 ]
  %68 = getelementptr inbounds nuw i8, ptr %67, i64 16
  %69 = load ptr, ptr %68, align 8, !tbaa !57
  %70 = getelementptr inbounds nuw i8, ptr %67, i64 4
  store i32 0, ptr %70, align 4, !tbaa !58
  %71 = getelementptr inbounds nuw i8, ptr %67, i64 8
  store ptr %66, ptr %71, align 8, !tbaa !59
  store ptr %69, ptr %3, align 8, !tbaa !49
  %.not101 = icmp eq ptr %69, null
  br i1 %.not101, label %..loopexit_crit_edge, label %65, !llvm.loop !87

..loopexit_crit_edge:                             ; preds = %65
  store ptr %67, ptr %64, align 8, !tbaa !56
  br label %.loopexit

.loopexit:                                        ; preds = %.loopexit103, %..loopexit_crit_edge, %56
  %.086 = phi i32 [ %60, %56 ], [ 0, %..loopexit_crit_edge ], [ 0, %.loopexit103 ]
  ret i32 %.086
}